target datalayout = "e-m:e-p270:32:32-p271:32:32-p272:64:64-i64:64-i128:128-f80:128-n8:16:32:64-S128"
target triple = "x86_64-pc-linux-gnu"

%"class.cv::Mat" = type { i32, i32, i32, i32, ptr, ptr, ptr, ptr, ptr, ptr, %"struct.cv::MatSize", %"struct.cv::MatStep" }
%"struct.cv::MatSize" = type { ptr }
%"struct.cv::MatStep" = type { ptr, [2 x i64] }
%"class.cv::Size_" = type { i32, i32 }
%"class.cv::_InputArray" = type { i32, ptr, %"class.cv::Size_" }
%"class.cv::_InputOutputArray" = type { %"class.cv::_OutputArray" }
%"class.cv::_OutputArray" = type { %"class.cv::_InputArray" }

; Function Attrs: inlinehint mustprogress uwtable
define linkonce_odr hidden void @_ZN2cv11_InputArrayC2Ev(ptr noundef nonnull align 8 dereferenceable(24) %0) unnamed_addr #2 comdat align 2 {
  %2 = alloca ptr, align 8
  store ptr %0, ptr %2, align 8, !tbaa !3
  %3 = load ptr, ptr %2, align 8
  %4 = getelementptr inbounds nuw %"class.cv::_InputArray", ptr %3, i32 0, i32 2
  call void @_ZN2cv5Size_IiEC2Ev(ptr noundef nonnull align 4 dereferenceable(8) %4)
  call void @_ZN2cv11_InputArray4initEiPKv(ptr noundef nonnull align 8 dereferenceable(24) %3, i32 noundef 0, ptr noundef null)
  ret void
}

; Function Attrs: inlinehint mustprogress uwtable
define linkonce_odr hidden void @_ZN2cv12_OutputArrayC2Ev(ptr noundef nonnull align 8 dereferenceable(24) %0) unnamed_addr #2 comdat align 2 {
  %2 = alloca ptr, align 8
  store ptr %0, ptr %2, align 8, !tbaa !8
  %3 = load ptr, ptr %2, align 8
  call void @_ZN2cv11_InputArrayC2Ev(ptr noundef nonnull align 8 dereferenceable(24) %3)
  call void @_ZN2cv11_InputArray4initEiPKv(ptr noundef nonnull align 8 dereferenceable(24) %3, i32 noundef 33554432, ptr noundef null)
  ret void
}

; Function Attrs: inlinehint mustprogress nounwind uwtable
define linkonce_odr hidden void @_ZN2cv11_InputArray4initEiPKv(ptr noundef nonnull align 8 dereferenceable(24) %0, i32 noundef %1, ptr noundef %2) #7 comdat align 2 {
  %4 = alloca ptr, align 8
  %5 = alloca i32, align 4
  %6 = alloca ptr, align 8
  store ptr %0, ptr %4, align 8, !tbaa !3
  store i32 %1, ptr %5, align 4, !tbaa !10
  store ptr %2, ptr %6, align 8, !tbaa !112
  %7 = load ptr, ptr %4, align 8
  %8 = load i32, ptr %5, align 4, !tbaa !10
  %9 = getelementptr inbounds nuw %"class.cv::_InputArray", ptr %7, i32 0, i32 0
  store i32 %8, ptr %9, align 8, !tbaa !184
  %10 = load ptr, ptr %6, align 8, !tbaa !112
  %11 = getelementptr inbounds nuw %"class.cv::_InputArray", ptr %7, i32 0, i32 1
  store ptr %10, ptr %11, align 8, !tbaa !26
  ret void
}

; Function Attrs: inlinehint mustprogress nounwind uwtable
define linkonce_odr hidden void @_ZN2cv5Size_IiEC2Ev(ptr noundef nonnull align 4 dereferenceable(8) %0) unnamed_addr #7 comdat align 2 {
  %2 = alloca ptr, align 8
  store ptr %0, ptr %2, align 8, !tbaa !89
  %3 = load ptr, ptr %2, align 8
  %4 = getelementptr inbounds nuw %"class.cv::Size_", ptr %3, i32 0, i32 0
  store i32 0, ptr %4, align 4, !tbaa !91
  %5 = getelementptr inbounds nuw %"class.cv::Size_", ptr %3, i32 0, i32 1
  store i32 0, ptr %5, align 4, !tbaa !92
  ret void
}

; Function Attrs: inlinehint mustprogress uwtable
define internal noundef nonnull align 8 dereferenceable(96) ptr @_ZN2cvmLERNS_3MatERKd(ptr noundef nonnull align 8 dereferenceable(96) %0, ptr noundef nonnull align 8 dereferenceable(8) %1) #2 personality ptr @__gxx_personality_v0 {
  %3 = alloca ptr, align 8
  %4 = alloca ptr, align 8
  %5 = alloca %"class.cv::_OutputArray", align 8
  %6 = alloca ptr, align 8
  %7 = alloca i32, align 4
  store ptr %0, ptr %3, align 8, !tbaa !31
  store ptr %1, ptr %4, align 8, !tbaa !146
  %8 = load ptr, ptr %3, align 8, !tbaa !31
  call void @llvm.lifetime.start.p0(i64 24, ptr %5) #17
  %9 = load ptr, ptr %3, align 8, !tbaa !31
  call void @_ZN2cv12_OutputArrayC2ERNS_3MatE(ptr noundef nonnull align 8 dereferenceable(24) %5, ptr noundef nonnull align 8 dereferenceable(96) %9)
  %10 = load ptr, ptr %4, align 8, !tbaa !146
  %11 = load double, ptr %10, align 8, !tbaa !12
  invoke void @_ZNK2cv3Mat9convertToERKNS_12_OutputArrayEidd(ptr noundef nonnull align 8 dereferenceable(96) %8, ptr noundef nonnull align 8 dereferenceable(24) %5, i32 noundef -1, double noundef %11, double noundef 0.000000e+00)
          to label %12 unwind label %14

12:                                               ; preds = %2
  call void @_ZN2cv11_InputArrayD2Ev(ptr noundef nonnull align 8 dereferenceable(24) %5) #17
  call void @llvm.lifetime.end.p0(i64 24, ptr %5) #17
  %13 = load ptr, ptr %3, align 8, !tbaa !31
  ret ptr %13

14:                                               ; preds = %2
  %15 = landingpad { ptr, i32 }
          cleanup
  %16 = extractvalue { ptr, i32 } %15, 0
  store ptr %16, ptr %6, align 8
  %17 = extractvalue { ptr, i32 } %15, 1
  store i32 %17, ptr %7, align 4
  call void @_ZN2cv11_InputArrayD2Ev(ptr noundef nonnull align 8 dereferenceable(24) %5) #17
  call void @llvm.lifetime.end.p0(i64 24, ptr %5) #17
  br label %18

18:                                               ; preds = %14
  %19 = load ptr, ptr %6, align 8
  %20 = load i32, ptr %7, align 4
  %21 = insertvalue { ptr, i32 } poison, ptr %19, 0
  %22 = insertvalue { ptr, i32 } %21, i32 %20, 1
  resume { ptr, i32 } %22
}

; Function Attrs: inlinehint mustprogress nounwind uwtable
define linkonce_odr hidden void @_ZN2cv5Size_IiEC2Eii(ptr noundef nonnull align 4 dereferenceable(8) %0, i32 noundef %1, i32 noundef %2) unnamed_addr #7 comdat align 2 {
  %4 = alloca ptr, align 8
  %5 = alloca i32, align 4
  %6 = alloca i32, align 4
  store ptr %0, ptr %4, align 8, !tbaa !89
  store i32 %1, ptr %5, align 4, !tbaa !10
  store i32 %2, ptr %6, align 4, !tbaa !10
  %7 = load ptr, ptr %4, align 8
  %8 = getelementptr inbounds nuw %"class.cv::Size_", ptr %7, i32 0, i32 0
  %9 = load i32, ptr %5, align 4, !tbaa !10
  store i32 %9, ptr %8, align 4, !tbaa !91
  %10 = getelementptr inbounds nuw %"class.cv::Size_", ptr %7, i32 0, i32 1
  %11 = load i32, ptr %6, align 4, !tbaa !10
  store i32 %11, ptr %10, align 4, !tbaa !92
  ret void
}

; Function Attrs: inlinehint mustprogress uwtable
define linkonce_odr hidden void @_ZN2cv12_OutputArrayC2ERNS_3MatE(ptr noundef nonnull align 8 dereferenceable(24) %0, ptr noundef nonnull align 8 dereferenceable(96) %1) unnamed_addr #2 comdat align 2 {
  %3 = alloca ptr, align 8
  %4 = alloca ptr, align 8
  store ptr %0, ptr %3, align 8, !tbaa !8
  store ptr %1, ptr %4, align 8, !tbaa !31
  %5 = load ptr, ptr %3, align 8
  call void @_ZN2cv11_InputArrayC2Ev(ptr noundef nonnull align 8 dereferenceable(24) %5)
  %6 = load ptr, ptr %4, align 8, !tbaa !31
  call void @_ZN2cv11_InputArray4initEiPKv(ptr noundef nonnull align 8 dereferenceable(24) %5, i32 noundef 33619968, ptr noundef %6)
  ret void
}

; Function Attrs: inlinehint mustprogress nounwind uwtable
define linkonce_odr hidden void @_ZN2cv11_InputArrayD2Ev(ptr noundef nonnull align 8 dereferenceable(24) %0) unnamed_addr #7 comdat align 2 {
  %2 = alloca ptr, align 8
  store ptr %0, ptr %2, align 8, !tbaa !3
  ret void
}

; Function Attrs: inlinehint mustprogress uwtable
define linkonce_odr hidden void @_ZN2cv17_InputOutputArrayC2ERNS_3MatE(ptr noundef nonnull align 8 dereferenceable(24) %0, ptr noundef nonnull align 8 dereferenceable(96) %1) unnamed_addr #2 comdat align 2 {
  %3 = alloca ptr, align 8
  %4 = alloca ptr, align 8
  store ptr %0, ptr %3, align 8, !tbaa !57
  store ptr %1, ptr %4, align 8, !tbaa !31
  %5 = load ptr, ptr %3, align 8
  call void @_ZN2cv12_OutputArrayC2Ev(ptr noundef nonnull align 8 dereferenceable(24) %5)
  %6 = load ptr, ptr %4, align 8, !tbaa !31
  call void @_ZN2cv11_InputArray4initEiPKv(ptr noundef nonnull align 8 dereferenceable(24) %5, i32 noundef 50397184, ptr noundef %6)
  ret void
}

; Function Attrs: inlinehint mustprogress uwtable
define linkonce_odr hidden void @_ZN2cv11_InputArrayC2ERKNS_3MatE(ptr noundef nonnull align 8 dereferenceable(24) %0, ptr noundef nonnull align 8 dereferenceable(96) %1) unnamed_addr #2 comdat align 2 {
  %3 = alloca ptr, align 8
  %4 = alloca ptr, align 8
  store ptr %0, ptr %3, align 8, !tbaa !3
  store ptr %1, ptr %4, align 8, !tbaa !31
  %5 = load ptr, ptr %3, align 8
  %6 = getelementptr inbounds nuw %"class.cv::_InputArray", ptr %5, i32 0, i32 2
  call void @_ZN2cv5Size_IiEC2Ev(ptr noundef nonnull align 4 dereferenceable(8) %6)
  %7 = load ptr, ptr %4, align 8, !tbaa !31
  call void @_ZN2cv11_InputArray4initEiPKv(ptr noundef nonnull align 8 dereferenceable(24) %5, i32 noundef 16842752, ptr noundef %7)
  ret void
}

; Function Attrs: mustprogress uwtable
define internal void @_ZN2cv7optflowL18upscaleOpticalFlowEiiRKNS_3MatES3_RS1_iff(ptr dead_on_unwind noalias writable sret(%"class.cv::Mat") align 8 %0, i32 noundef %1, i32 noundef %2, ptr noundef nonnull align 8 dereferenceable(96) %3, ptr noundef nonnull align 8 dereferenceable(96) %4, ptr noundef nonnull align 8 dereferenceable(96) %5, i32 noundef %6, float noundef %7, float noundef %8) #0 personality ptr @__gxx_personality_v0 {
  %10 = alloca ptr, align 8
  %11 = alloca i32, align 4
  %12 = alloca i32, align 4
  %13 = alloca ptr, align 8
  %14 = alloca ptr, align 8
  %15 = alloca ptr, align 8
  %16 = alloca i32, align 4
  %17 = alloca float, align 4
  %18 = alloca float, align 4
  %19 = alloca %"class.cv::_InputArray", align 8
  %20 = alloca %"class.cv::_InputArray", align 8
  %21 = alloca ptr, align 8
  %22 = alloca i32, align 4
  %23 = alloca %"class.cv::_InputOutputArray", align 8
  %24 = alloca i1, align 1
  %25 = alloca %"class.cv::_InputArray", align 8
  %26 = alloca %"class.cv::_OutputArray", align 8
  %27 = alloca %"class.cv::Size_", align 4
  %28 = alloca double, align 8
  store ptr %0, ptr %10, align 8
  store i32 %1, ptr %11, align 4, !tbaa !10
  store i32 %2, ptr %12, align 4, !tbaa !10
  store ptr %3, ptr %13, align 8, !tbaa !31
  store ptr %4, ptr %14, align 8, !tbaa !31
  store ptr %5, ptr %15, align 8, !tbaa !31
  store i32 %6, ptr %16, align 4, !tbaa !10
  store float %7, ptr %17, align 4, !tbaa !59
  store float %8, ptr %18, align 4, !tbaa !59
  call void @llvm.lifetime.start.p0(i64 24, ptr %19) #17
  %29 = load ptr, ptr %13, align 8, !tbaa !31
  call void @_ZN2cv11_InputArrayC2ERKNS_3MatE(ptr noundef nonnull align 8 dereferenceable(24) %19, ptr noundef nonnull align 8 dereferenceable(96) %29)
  call void @llvm.lifetime.start.p0(i64 24, ptr %20) #17
  %30 = load ptr, ptr %14, align 8, !tbaa !31
  invoke void @_ZN2cv11_InputArrayC2ERKNS_3MatE(ptr noundef nonnull align 8 dereferenceable(24) %20, ptr noundef nonnull align 8 dereferenceable(96) %30)
          to label %31 unwind label %51

31:                                               ; preds = %9
  call void @llvm.lifetime.start.p0(i64 24, ptr %23) #17
  %32 = load ptr, ptr %15, align 8, !tbaa !31
  invoke void @_ZN2cv17_InputOutputArrayC2ERNS_3MatE(ptr noundef nonnull align 8 dereferenceable(24) %23, ptr noundef nonnull align 8 dereferenceable(96) %32)
          to label %33 unwind label %55

33:                                               ; preds = %31
  %34 = load i32, ptr %16, align 4, !tbaa !10
  %35 = load float, ptr %18, align 4, !tbaa !59
  %36 = fpext float %35 to double
  %37 = load float, ptr %17, align 4, !tbaa !59
  %38 = fpext float %37 to double
  invoke void @_ZN2cv7optflowL20crossBilateralFilterERKNS_11_InputArrayES3_RKNS_17_InputOutputArrayEiddb(ptr noundef nonnull align 8 dereferenceable(24) %19, ptr noundef nonnull align 8 dereferenceable(24) %20, ptr noundef nonnull align 8 dereferenceable(24) %23, i32 noundef %34, double noundef %36, double noundef %38, i1 noundef zeroext true)
          to label %39 unwind label %59

39:                                               ; preds = %33
  call void @_ZN2cv11_InputArrayD2Ev(ptr noundef nonnull align 8 dereferenceable(24) %23) #17
  call void @llvm.lifetime.end.p0(i64 24, ptr %23) #17
  call void @_ZN2cv11_InputArrayD2Ev(ptr noundef nonnull align 8 dereferenceable(24) %20) #17
  call void @llvm.lifetime.end.p0(i64 24, ptr %20) #17
  call void @_ZN2cv11_InputArrayD2Ev(ptr noundef nonnull align 8 dereferenceable(24) %19) #17
  call void @llvm.lifetime.end.p0(i64 24, ptr %19) #17
  store i1 false, ptr %24, align 1
  call void @_ZN2cv3MatC1Ev(ptr noundef nonnull align 8 dereferenceable(96) %0) #17
  call void @llvm.lifetime.start.p0(i64 24, ptr %25) #17
  %40 = load ptr, ptr %15, align 8, !tbaa !31
  invoke void @_ZN2cv11_InputArrayC2ERKNS_3MatE(ptr noundef nonnull align 8 dereferenceable(24) %25, ptr noundef nonnull align 8 dereferenceable(96) %40)
          to label %41 unwind label %65

41:                                               ; preds = %39
  call void @llvm.lifetime.start.p0(i64 24, ptr %26) #17
  invoke void @_ZN2cv12_OutputArrayC2ERNS_3MatE(ptr noundef nonnull align 8 dereferenceable(24) %26, ptr noundef nonnull align 8 dereferenceable(96) %0)
          to label %42 unwind label %69

42:                                               ; preds = %41
  %43 = load i32, ptr %12, align 4, !tbaa !10
  %44 = load i32, ptr %11, align 4, !tbaa !10
  invoke void @_ZN2cv5Size_IiEC2Eii(ptr noundef nonnull align 4 dereferenceable(8) %27, i32 noundef %43, i32 noundef %44)
          to label %45 unwind label %73

45:                                               ; preds = %42
  %46 = load i64, ptr %27, align 4
  invoke void @_ZN2cv6resizeERKNS_11_InputArrayERKNS_12_OutputArrayENS_5Size_IiEEddi(ptr noundef nonnull align 8 dereferenceable(24) %25, ptr noundef nonnull align 8 dereferenceable(24) %26, i64 %46, double noundef 0.000000e+00, double noundef 0.000000e+00, i32 noundef 0)
          to label %47 unwind label %73

47:                                               ; preds = %45
  call void @_ZN2cv11_InputArrayD2Ev(ptr noundef nonnull align 8 dereferenceable(24) %26) #17
  call void @llvm.lifetime.end.p0(i64 24, ptr %26) #17
  call void @_ZN2cv11_InputArrayD2Ev(ptr noundef nonnull align 8 dereferenceable(24) %25) #17
  call void @llvm.lifetime.end.p0(i64 24, ptr %25) #17
  call void @llvm.lifetime.start.p0(i64 8, ptr %28) #17
  store double 2.000000e+00, ptr %28, align 8, !tbaa !12
  %48 = invoke noundef nonnull align 8 dereferenceable(96) ptr @_ZN2cvmLERNS_3MatERKd(ptr noundef nonnull align 8 dereferenceable(96) %0, ptr noundef nonnull align 8 dereferenceable(8) %28)
          to label %49 unwind label %79

49:                                               ; preds = %47
  call void @llvm.lifetime.end.p0(i64 8, ptr %28) #17
  store i1 true, ptr %24, align 1
  %50 = load i1, ptr %24, align 1
  br i1 %50, label %84, label %83

51:                                               ; preds = %9
  %52 = landingpad { ptr, i32 }
          cleanup
  %53 = extractvalue { ptr, i32 } %52, 0
  store ptr %53, ptr %21, align 8
  %54 = extractvalue { ptr, i32 } %52, 1
  store i32 %54, ptr %22, align 4
  br label %64

55:                                               ; preds = %31
  %56 = landingpad { ptr, i32 }
          cleanup
  %57 = extractvalue { ptr, i32 } %56, 0
  store ptr %57, ptr %21, align 8
  %58 = extractvalue { ptr, i32 } %56, 1
  store i32 %58, ptr %22, align 4
  br label %63

59:                                               ; preds = %33
  %60 = landingpad { ptr, i32 }
          cleanup
  %61 = extractvalue { ptr, i32 } %60, 0
  store ptr %61, ptr %21, align 8
  %62 = extractvalue { ptr, i32 } %60, 1
  store i32 %62, ptr %22, align 4
  call void @_ZN2cv11_InputArrayD2Ev(ptr noundef nonnull align 8 dereferenceable(24) %23) #17
  br label %63

63:                                               ; preds = %59, %55
  call void @llvm.lifetime.end.p0(i64 24, ptr %23) #17
  call void @_ZN2cv11_InputArrayD2Ev(ptr noundef nonnull align 8 dereferenceable(24) %20) #17
  br label %64

64:                                               ; preds = %63, %51
  call void @llvm.lifetime.end.p0(i64 24, ptr %20) #17
  call void @_ZN2cv11_InputArrayD2Ev(ptr noundef nonnull align 8 dereferenceable(24) %19) #17
  call void @llvm.lifetime.end.p0(i64 24, ptr %19) #17
  br label %86

65:                                               ; preds = %39
  %66 = landingpad { ptr, i32 }
          cleanup
  %67 = extractvalue { ptr, i32 } %66, 0
  store ptr %67, ptr %21, align 8
  %68 = extractvalue { ptr, i32 } %66, 1
  store i32 %68, ptr %22, align 4
  br label %78

69:                                               ; preds = %41
  %70 = landingpad { ptr, i32 }
          cleanup
  %71 = extractvalue { ptr, i32 } %70, 0
  store ptr %71, ptr %21, align 8
  %72 = extractvalue { ptr, i32 } %70, 1
  store i32 %72, ptr %22, align 4
  br label %77

73:                                               ; preds = %45, %42
  %74 = landingpad { ptr, i32 }
          cleanup
  %75 = extractvalue { ptr, i32 } %74, 0
  store ptr %75, ptr %21, align 8
  %76 = extractvalue { ptr, i32 } %74, 1
  store i32 %76, ptr %22, align 4
  call void @_ZN2cv11_InputArrayD2Ev(ptr noundef nonnull align 8 dereferenceable(24) %26) #17
  br label %77

77:                                               ; preds = %73, %69
  call void @llvm.lifetime.end.p0(i64 24, ptr %26) #17
  call void @_ZN2cv11_InputArrayD2Ev(ptr noundef nonnull align 8 dereferenceable(24) %25) #17
  br label %78

78:                                               ; preds = %77, %65
  call void @llvm.lifetime.end.p0(i64 24, ptr %25) #17
  br label %85

79:                                               ; preds = %47
  %80 = landingpad { ptr, i32 }
          cleanup
  %81 = extractvalue { ptr, i32 } %80, 0
  store ptr %81, ptr %21, align 8
  %82 = extractvalue { ptr, i32 } %80, 1
  store i32 %82, ptr %22, align 4
  call void @llvm.lifetime.end.p0(i64 8, ptr %28) #17
  br label %85

83:                                               ; preds = %49
  call void @_ZN2cv3MatD1Ev(ptr noundef nonnull align 8 dereferenceable(96) %0) #17
  br label %84

84:                                               ; preds = %83, %49
  ret void

85:                                               ; preds = %79, %78
  call void @_ZN2cv3MatD1Ev(ptr noundef nonnull align 8 dereferenceable(96) %0) #17
  br label %86

86:                                               ; preds = %85, %64
  %87 = load ptr, ptr %21, align 8
  %88 = load i32, ptr %22, align 4
  %89 = insertvalue { ptr, i32 } poison, ptr %87, 0
  %90 = insertvalue { ptr, i32 } %89, i32 %88, 1
  resume { ptr, i32 } %90
}