; Function Attrs: mustprogress uwtable
define internal fastcc void @_ZN2cv7optflowL18upscaleOpticalFlowEiiRKNS_3MatES3_RS1_iff(ptr dead_on_unwind noalias nonnull writable align 8 %0, i32 noundef %1, i32 noundef %2, ptr noundef nonnull align 8 dereferenceable(96) %3, ptr noundef nonnull align 8 dereferenceable(96) %4, ptr noundef nonnull align 8 dereferenceable(96) %5, i32 noundef %6, float noundef %7, float noundef %8) unnamed_addr #0 personality ptr @__gxx_personality_v0 {
  %10 = alloca %"class.cv::_OutputArray", align 8
  %11 = alloca %"class.cv::_InputArray", align 8
  %12 = alloca %"class.cv::_InputArray", align 8
  %13 = alloca %"class.cv::_InputOutputArray", align 8
  %14 = alloca %"class.cv::_InputArray", align 8
  %15 = alloca %"class.cv::_OutputArray", align 8
  call void @llvm.lifetime.start.p0(i64 24, ptr nonnull %11) #19
  %16 = getelementptr inbounds nuw i8, ptr %11, i64 16
  store i32 0, ptr %16, align 8, !tbaa !56
  %17 = getelementptr inbounds nuw i8, ptr %11, i64 20
  store i32 0, ptr %17, align 4, !tbaa !57
  store i32 16842752, ptr %11, align 8, !tbaa !58
  %18 = getelementptr inbounds nuw i8, ptr %11, i64 8
  store ptr %3, ptr %18, align 8, !tbaa !6
  call void @llvm.lifetime.start.p0(i64 24, ptr nonnull %12) #19
  %19 = getelementptr inbounds nuw i8, ptr %12, i64 16
  store i32 0, ptr %19, align 8, !tbaa !56
  %20 = getelementptr inbounds nuw i8, ptr %12, i64 20
  store i32 0, ptr %20, align 4, !tbaa !57
  store i32 16842752, ptr %12, align 8, !tbaa !58
  %21 = getelementptr inbounds nuw i8, ptr %12, i64 8
  store ptr %4, ptr %21, align 8, !tbaa !6
  call void @llvm.lifetime.start.p0(i64 24, ptr nonnull %13) #19
  %22 = getelementptr inbounds nuw i8, ptr %13, i64 8
  %23 = getelementptr inbounds nuw i8, ptr %13, i64 16
  store i64 0, ptr %23, align 8
  store i32 50397184, ptr %13, align 8, !tbaa !58
  store ptr %5, ptr %22, align 8, !tbaa !6
  %24 = fpext float %8 to double
  %25 = fpext float %7 to double
  call fastcc void @_ZN2cv7optflowL20crossBilateralFilterERKNS_11_InputArrayES3_RKNS_17_InputOutputArrayEiddb(ptr noundef nonnull align 8 dereferenceable(24) %11, ptr noundef nonnull align 8 dereferenceable(24) %12, ptr noundef nonnull align 8 dereferenceable(24) %13, i32 noundef %6, double noundef %24, double noundef %25, i1 noundef zeroext true)
  call void @llvm.lifetime.end.p0(i64 24, ptr nonnull %13) #19
  call void @llvm.lifetime.end.p0(i64 24, ptr nonnull %12) #19
  call void @llvm.lifetime.end.p0(i64 24, ptr nonnull %11) #19
  call void @_ZN2cv3MatC1Ev(ptr noundef nonnull align 8 dereferenceable(96) %0) #19
  call void @llvm.lifetime.start.p0(i64 24, ptr nonnull %14) #19
  %26 = getelementptr inbounds nuw i8, ptr %14, i64 16
  store i32 0, ptr %26, align 8, !tbaa !56
  %27 = getelementptr inbounds nuw i8, ptr %14, i64 20
  store i32 0, ptr %27, align 4, !tbaa !57
  store i32 16842752, ptr %14, align 8, !tbaa !58
  %28 = getelementptr inbounds nuw i8, ptr %14, i64 8
  store ptr %5, ptr %28, align 8, !tbaa !6
  call void @llvm.lifetime.start.p0(i64 24, ptr nonnull %15) #19
  %29 = getelementptr inbounds nuw i8, ptr %15, i64 8
  %30 = getelementptr inbounds nuw i8, ptr %15, i64 16
  store i64 0, ptr %30, align 8
  store i32 33619968, ptr %15, align 8, !tbaa !58
  store ptr %0, ptr %29, align 8, !tbaa !6
  %.sroa.2.0.insert.ext = zext i32 %1 to i64
  %.sroa.2.0.insert.shift = shl nuw i64 %.sroa.2.0.insert.ext, 32
  %.sroa.0.0.insert.ext = zext i32 %2 to i64
  %.sroa.0.0.insert.insert = or disjoint i64 %.sroa.2.0.insert.shift, %.sroa.0.0.insert.ext
  invoke void @_ZN2cv6resizeERKNS_11_InputArrayERKNS_12_OutputArrayENS_5Size_IiEEddi(ptr noundef nonnull align 8 dereferenceable(24) %14, ptr noundef nonnull align 8 dereferenceable(24) %15, i64 %.sroa.0.0.insert.insert, double noundef 0.000000e+00, double noundef 0.000000e+00, i32 noundef 0)
          to label %31 unwind label %35

31:                                               ; preds = %9
  call void @llvm.lifetime.end.p0(i64 24, ptr nonnull %15) #19
  call void @llvm.lifetime.end.p0(i64 24, ptr nonnull %14) #19
  call void @llvm.lifetime.start.p0(i64 24, ptr nonnull %10) #19
  %32 = getelementptr inbounds nuw i8, ptr %10, i64 8
  %33 = getelementptr inbounds nuw i8, ptr %10, i64 16
  store i64 0, ptr %33, align 8
  store i32 33619968, ptr %10, align 8, !tbaa !58
  store ptr %0, ptr %32, align 8, !tbaa !6
  invoke void @_ZNK2cv3Mat9convertToERKNS_12_OutputArrayEidd(ptr noundef nonnull align 8 dereferenceable(96) %0, ptr noundef nonnull align 8 dereferenceable(24) %10, i32 noundef -1, double noundef 2.000000e+00, double noundef 0.000000e+00)
          to label %34 unwind label %37

34:                                               ; preds = %31
  call void @llvm.lifetime.end.p0(i64 24, ptr nonnull %10) #19
  ret void

35:                                               ; preds = %9
  %36 = landingpad { ptr, i32 }
          cleanup
  call void @llvm.lifetime.end.p0(i64 24, ptr nonnull %15) #19
  call void @llvm.lifetime.end.p0(i64 24, ptr nonnull %14) #19
  br label %39

37:                                               ; preds = %31
  %38 = landingpad { ptr, i32 }
          cleanup
  br label %39

39:                                               ; preds = %37, %35
  %.pn22 = phi { ptr, i32 } [ %38, %37 ], [ %36, %35 ]
  call void @_ZN2cv3MatD1Ev(ptr noundef nonnull align 8 dereferenceable(96) %0) #19
  resume { ptr, i32 } %.pn22
}